#include <math.h>
#include <stdio.h>
#include <stdlib.h>
#include <string.h>

int main()
{
	int day[13]={0,31,28,31,30,31,30,31,31,30,31,30,31};
	int n,i,j,x;
	scanf("%d",&n);
	for(i=0;i<12;i++)
	{
		x=n;
		j=0;
		while(j<i+1)
		{
			x+=day[j];
			j++;
		}
		x+=12;
		if(x%7==5)printf("%d\n",i+1);
	}


	


     return 0;
}


