; ModuleID = 'source-C-CXX/49/1087.c'
source_filename = "source-C-CXX/49/1087.c"
target datalayout = "e-m:e-p270:32:32-p271:32:32-p272:64:64-i64:64-f80:128-n8:16:32:64-S128"
target triple = "x86_64-pc-linux-gnu"

@.str = private unnamed_addr constant [3 x i8] c"%d\00", align 1
@.str.1 = private unnamed_addr constant [4 x i8] c"%d\0A\00", align 1

; Function Attrs: nofree nounwind sspstrong uwtable
define dso_local i32 @main() local_unnamed_addr #0 {
  %1 = alloca i32, align 4
  %2 = bitcast i32* %1 to i8*
  call void @llvm.lifetime.start.p0i8(i64 4, i8* nonnull %2) #3
  %3 = call i32 (i8*, ...) @__isoc99_scanf(i8* getelementptr inbounds ([3 x i8], [3 x i8]* @.str, i64 0, i64 0), i32* nonnull %1)
  %4 = load i32, i32* %1, align 4, !tbaa !5
  %5 = add nsw i32 %4, 12
  %6 = srem i32 %5, 7
  %7 = icmp eq i32 %6, 5
  br i1 %7, label %8, label %11

8:                                                ; preds = %0
  %9 = call i32 (i8*, ...) @printf(i8* nonnull dereferenceable(1) getelementptr inbounds ([4 x i8], [4 x i8]* @.str.1, i64 0, i64 0), i32 1)
  %10 = load i32, i32* %1, align 4, !tbaa !5
  br label %11

11:                                               ; preds = %0, %8
  %12 = phi i32 [ %4, %0 ], [ %10, %8 ]
  %13 = add nsw i32 %12, 43
  %14 = srem i32 %13, 7
  %15 = icmp eq i32 %14, 5
  br i1 %15, label %16, label %19

16:                                               ; preds = %11
  %17 = call i32 (i8*, ...) @printf(i8* nonnull dereferenceable(1) getelementptr inbounds ([4 x i8], [4 x i8]* @.str.1, i64 0, i64 0), i32 2)
  %18 = load i32, i32* %1, align 4, !tbaa !5
  br label %19

19:                                               ; preds = %16, %11
  %20 = phi i32 [ %18, %16 ], [ %12, %11 ]
  %21 = add nsw i32 %20, 71
  %22 = srem i32 %21, 7
  %23 = icmp eq i32 %22, 5
  br i1 %23, label %24, label %27

24:                                               ; preds = %19
  %25 = call i32 (i8*, ...) @printf(i8* nonnull dereferenceable(1) getelementptr inbounds ([4 x i8], [4 x i8]* @.str.1, i64 0, i64 0), i32 3)
  %26 = load i32, i32* %1, align 4, !tbaa !5
  br label %27

27:                                               ; preds = %24, %19
  %28 = phi i32 [ %26, %24 ], [ %20, %19 ]
  %29 = add nsw i32 %28, 102
  %30 = srem i32 %29, 7
  %31 = icmp eq i32 %30, 5
  br i1 %31, label %32, label %35

32:                                               ; preds = %27
  %33 = call i32 (i8*, ...) @printf(i8* nonnull dereferenceable(1) getelementptr inbounds ([4 x i8], [4 x i8]* @.str.1, i64 0, i64 0), i32 4)
  %34 = load i32, i32* %1, align 4, !tbaa !5
  br label %35

35:                                               ; preds = %32, %27
  %36 = phi i32 [ %34, %32 ], [ %28, %27 ]
  %37 = add nsw i32 %36, 132
  %38 = srem i32 %37, 7
  %39 = icmp eq i32 %38, 5
  br i1 %39, label %40, label %43

40:                                               ; preds = %35
  %41 = call i32 (i8*, ...) @printf(i8* nonnull dereferenceable(1) getelementptr inbounds ([4 x i8], [4 x i8]* @.str.1, i64 0, i64 0), i32 5)
  %42 = load i32, i32* %1, align 4, !tbaa !5
  br label %43

43:                                               ; preds = %40, %35
  %44 = phi i32 [ %42, %40 ], [ %36, %35 ]
  %45 = add nsw i32 %44, 163
  %46 = srem i32 %45, 7
  %47 = icmp eq i32 %46, 5
  br i1 %47, label %48, label %51

48:                                               ; preds = %43
  %49 = call i32 (i8*, ...) @printf(i8* nonnull dereferenceable(1) getelementptr inbounds ([4 x i8], [4 x i8]* @.str.1, i64 0, i64 0), i32 6)
  %50 = load i32, i32* %1, align 4, !tbaa !5
  br label %51

51:                                               ; preds = %48, %43
  %52 = phi i32 [ %50, %48 ], [ %44, %43 ]
  %53 = add nsw i32 %52, 193
  %54 = srem i32 %53, 7
  %55 = icmp eq i32 %54, 5
  br i1 %55, label %56, label %59

56:                                               ; preds = %51
  %57 = call i32 (i8*, ...) @printf(i8* nonnull dereferenceable(1) getelementptr inbounds ([4 x i8], [4 x i8]* @.str.1, i64 0, i64 0), i32 7)
  %58 = load i32, i32* %1, align 4, !tbaa !5
  br label %59

59:                                               ; preds = %56, %51
  %60 = phi i32 [ %58, %56 ], [ %52, %51 ]
  %61 = add nsw i32 %60, 224
  %62 = srem i32 %61, 7
  %63 = icmp eq i32 %62, 5
  br i1 %63, label %64, label %67

64:                                               ; preds = %59
  %65 = call i32 (i8*, ...) @printf(i8* nonnull dereferenceable(1) getelementptr inbounds ([4 x i8], [4 x i8]* @.str.1, i64 0, i64 0), i32 8)
  %66 = load i32, i32* %1, align 4, !tbaa !5
  br label %67

67:                                               ; preds = %64, %59
  %68 = phi i32 [ %66, %64 ], [ %60, %59 ]
  %69 = add nsw i32 %68, 255
  %70 = srem i32 %69, 7
  %71 = icmp eq i32 %70, 5
  br i1 %71, label %72, label %75

72:                                               ; preds = %67
  %73 = call i32 (i8*, ...) @printf(i8* nonnull dereferenceable(1) getelementptr inbounds ([4 x i8], [4 x i8]* @.str.1, i64 0, i64 0), i32 9)
  %74 = load i32, i32* %1, align 4, !tbaa !5
  br label %75

75:                                               ; preds = %72, %67
  %76 = phi i32 [ %74, %72 ], [ %68, %67 ]
  %77 = add nsw i32 %76, 285
  %78 = srem i32 %77, 7
  %79 = icmp eq i32 %78, 5
  br i1 %79, label %80, label %83

80:                                               ; preds = %75
  %81 = call i32 (i8*, ...) @printf(i8* nonnull dereferenceable(1) getelementptr inbounds ([4 x i8], [4 x i8]* @.str.1, i64 0, i64 0), i32 10)
  %82 = load i32, i32* %1, align 4, !tbaa !5
  br label %83

83:                                               ; preds = %80, %75
  %84 = phi i32 [ %82, %80 ], [ %76, %75 ]
  %85 = add nsw i32 %84, 316
  %86 = srem i32 %85, 7
  %87 = icmp eq i32 %86, 5
  br i1 %87, label %88, label %91

88:                                               ; preds = %83
  %89 = call i32 (i8*, ...) @printf(i8* nonnull dereferenceable(1) getelementptr inbounds ([4 x i8], [4 x i8]* @.str.1, i64 0, i64 0), i32 11)
  %90 = load i32, i32* %1, align 4, !tbaa !5
  br label %91

91:                                               ; preds = %88, %83
  %92 = phi i32 [ %90, %88 ], [ %84, %83 ]
  %93 = add nsw i32 %92, 346
  %94 = srem i32 %93, 7
  %95 = icmp eq i32 %94, 5
  br i1 %95, label %96, label %98

96:                                               ; preds = %91
  %97 = call i32 (i8*, ...) @printf(i8* nonnull dereferenceable(1) getelementptr inbounds ([4 x i8], [4 x i8]* @.str.1, i64 0, i64 0), i32 12)
  br label %98

98:                                               ; preds = %96, %91
  call void @llvm.lifetime.end.p0i8(i64 4, i8* nonnull %2) #3
  ret i32 0
}

; Function Attrs: argmemonly mustprogress nofree nosync nounwind willreturn
declare void @llvm.lifetime.start.p0i8(i64 immarg, i8* nocapture) #1

; Function Attrs: nofree nounwind
declare noundef i32 @__isoc99_scanf(i8* nocapture noundef readonly, ...) local_unnamed_addr #2

; Function Attrs: nofree nounwind
declare noundef i32 @printf(i8* nocapture noundef readonly, ...) local_unnamed_addr #2

; Function Attrs: argmemonly mustprogress nofree nosync nounwind willreturn
declare void @llvm.lifetime.end.p0i8(i64 immarg, i8* nocapture) #1


!llvm.module.flags = !{!0, !1, !2, !3}
!llvm.ident = !{!4}

!0 = !{i32 1, !"wchar_size", i32 4}
!1 = !{i32 7, !"PIC Level", i32 2}
!2 = !{i32 7, !"PIE Level", i32 2}
!3 = !{i32 7, !"uwtable", i32 1}
!4 = !{!"clang version 13.0.0"}
!5 = !{!6, !6, i64 0}
!6 = !{!"int", !7, i64 0}
!7 = !{!"omnipotent char", !8, i64 0}
!8 = !{!"Simple C/C++ TBAA"}
